target datalayout = "e-m:e-p270:32:32-p271:32:32-p272:64:64-i64:64-i128:128-f80:128-n8:16:32:64-S128"
target triple = "x86_64-pc-linux-gnu"

%struct.Abc_Frame_t_ = type { ptr, ptr, ptr, ptr, ptr, ptr, ptr, ptr, ptr, ptr, i32, i32, i32, i32, i32, ptr, float, float, i32, i32, ptr, ptr, ptr, double, double, ptr, ptr, ptr, ptr, ptr, ptr, ptr, ptr, ptr, ptr, ptr, ptr, float, ptr, i32, ptr, ptr, ptr, ptr, ptr, i32, i32, i32, i32, i32, i32, ptr, ptr, ptr, ptr, ptr, ptr, i32, i32, ptr, ptr, ptr, ptr, ptr, ptr, ptr, ptr, ptr, ptr, ptr, ptr, ptr, ptr, ptr, ptr, ptr, ptr, ptr, ptr, ptr, ptr, ptr, ptr, ptr, ptr, ptr, ptr, ptr, ptr }

@.str = private unnamed_addr constant [1 x i8] zeroinitializer, align 1

; Function Attrs: nounwind uwtable
define ptr @Cmd_FlagReadByName(ptr noundef %0, ptr noundef %1) #0 {
  %3 = alloca ptr, align 8
  %4 = alloca ptr, align 8
  %5 = alloca ptr, align 8
  %6 = alloca ptr, align 8
  %7 = alloca i32, align 4
  store ptr %0, ptr %4, align 8, !tbaa !3
  store ptr %1, ptr %5, align 8, !tbaa !8
  call void @llvm.lifetime.start.p0(i64 8, ptr %6) #4
  %8 = load ptr, ptr %4, align 8, !tbaa !3
  %9 = getelementptr inbounds nuw %struct.Abc_Frame_t_, ptr %8, i32 0, i32 4
  %10 = load ptr, ptr %9, align 8, !tbaa !10
  %11 = load ptr, ptr %5, align 8, !tbaa !8
  %12 = call i32 @st__lookup(ptr noundef %10, ptr noundef %11, ptr noundef %6)
  %13 = icmp ne i32 %12, 0
  br i1 %13, label %14, label %16

14:                                               ; preds = %2
  %15 = load ptr, ptr %6, align 8, !tbaa !8
  store ptr %15, ptr %3, align 8
  store i32 1, ptr %7, align 4
  br label %17

16:                                               ; preds = %2
  store ptr null, ptr %3, align 8
  store i32 1, ptr %7, align 4
  br label %17

17:                                               ; preds = %16, %14
  call void @llvm.lifetime.end.p0(i64 8, ptr %6) #4
  %18 = load ptr, ptr %3, align 8
  ret ptr %18
}

; Function Attrs: nocallback nofree nosync nounwind willreturn memory(argmem: readwrite)
declare void @llvm.lifetime.start.p0(i64 immarg, ptr captures(none)) #1

declare i32 @st__lookup(ptr noundef, ptr noundef, ptr noundef) #2

; Function Attrs: nocallback nofree nosync nounwind willreturn memory(argmem: readwrite)
declare void @llvm.lifetime.end.p0(i64 immarg, ptr captures(none)) #1

; Function Attrs: nounwind uwtable
define void @Cmd_FlagUpdateValue(ptr noundef %0, ptr noundef %1, ptr noundef %2) #0 {
  %4 = alloca ptr, align 8
  %5 = alloca ptr, align 8
  %6 = alloca ptr, align 8
  %7 = alloca ptr, align 8
  %8 = alloca ptr, align 8
  %9 = alloca i32, align 4
  store ptr %0, ptr %4, align 8, !tbaa !3
  store ptr %1, ptr %5, align 8, !tbaa !8
  store ptr %2, ptr %6, align 8, !tbaa !8
  call void @llvm.lifetime.start.p0(i64 8, ptr %7) #4
  call void @llvm.lifetime.start.p0(i64 8, ptr %8) #4
  %10 = load ptr, ptr %5, align 8, !tbaa !8
  %11 = icmp ne ptr %10, null
  br i1 %11, label %13, label %12

12:                                               ; preds = %3
  store i32 1, ptr %9, align 4
  br label %41

13:                                               ; preds = %3
  %14 = load ptr, ptr %6, align 8, !tbaa !8
  %15 = icmp ne ptr %14, null
  br i1 %15, label %16, label %19

16:                                               ; preds = %13
  %17 = load ptr, ptr %6, align 8, !tbaa !8
  %18 = call ptr @Extra_UtilStrsav(ptr noundef %17)
  store ptr %18, ptr %8, align 8, !tbaa !8
  br label %21

19:                                               ; preds = %13
  %20 = call ptr @Extra_UtilStrsav(ptr noundef @.str)
  store ptr %20, ptr %8, align 8, !tbaa !8
  br label %21

21:                                               ; preds = %19, %16
  %22 = load ptr, ptr %4, align 8, !tbaa !3
  %23 = getelementptr inbounds nuw %struct.Abc_Frame_t_, ptr %22, i32 0, i32 4
  %24 = load ptr, ptr %23, align 8, !tbaa !10
  %25 = call i32 @st__delete(ptr noundef %24, ptr noundef %5, ptr noundef %7)
  %26 = icmp ne i32 %25, 0
  br i1 %26, label %27, label %34

27:                                               ; preds = %21
  %28 = load ptr, ptr %7, align 8, !tbaa !8
  %29 = icmp ne ptr %28, null
  br i1 %29, label %30, label %32

30:                                               ; preds = %27
  %31 = load ptr, ptr %7, align 8, !tbaa !8
  call void @free(ptr noundef %31) #4
  store ptr null, ptr %7, align 8, !tbaa !8
  br label %33

32:                                               ; preds = %27
  br label %33

33:                                               ; preds = %32, %30
  br label %34

34:                                               ; preds = %33, %21
  %35 = load ptr, ptr %4, align 8, !tbaa !3
  %36 = getelementptr inbounds nuw %struct.Abc_Frame_t_, ptr %35, i32 0, i32 4
  %37 = load ptr, ptr %36, align 8, !tbaa !10
  %38 = load ptr, ptr %5, align 8, !tbaa !8
  %39 = load ptr, ptr %8, align 8, !tbaa !8
  %40 = call i32 @st__insert(ptr noundef %37, ptr noundef %38, ptr noundef %39)
  store i32 0, ptr %9, align 4
  br label %41

41:                                               ; preds = %34, %12
  call void @llvm.lifetime.end.p0(i64 8, ptr %8) #4
  call void @llvm.lifetime.end.p0(i64 8, ptr %7) #4
  %42 = load i32, ptr %9, align 4
  switch i32 %42, label %44 [
    i32 0, label %43
    i32 1, label %43
  ]

43:                                               ; preds = %41, %41
  ret void

44:                                               ; preds = %41
  unreachable
}

declare ptr @Extra_UtilStrsav(ptr noundef) #2

declare i32 @st__delete(ptr noundef, ptr noundef, ptr noundef) #2

; Function Attrs: nounwind
declare void @free(ptr noundef) #3

declare i32 @st__insert(ptr noundef, ptr noundef, ptr noundef) #2

; Function Attrs: nounwind uwtable
define void @Cmd_FlagDeleteByName(ptr noundef %0, ptr noundef %1) #0 {
  %3 = alloca ptr, align 8
  %4 = alloca ptr, align 8
  %5 = alloca ptr, align 8
  %6 = alloca i32, align 4
  store ptr %0, ptr %3, align 8, !tbaa !3
  store ptr %1, ptr %4, align 8, !tbaa !8
  call void @llvm.lifetime.start.p0(i64 8, ptr %5) #4
  %7 = load ptr, ptr %4, align 8, !tbaa !8
  %8 = icmp ne ptr %7, null
  br i1 %8, label %10, label %9

9:                                                ; preds = %2
  store i32 1, ptr %6, align 4
  br label %30

10:                                               ; preds = %2
  %11 = load ptr, ptr %3, align 8, !tbaa !3
  %12 = getelementptr inbounds nuw %struct.Abc_Frame_t_, ptr %11, i32 0, i32 4
  %13 = load ptr, ptr %12, align 8, !tbaa !10
  %14 = call i32 @st__delete(ptr noundef %13, ptr noundef %4, ptr noundef %5)
  %15 = icmp ne i32 %14, 0
  br i1 %15, label %16, label %29

16:                                               ; preds = %10
  %17 = load ptr, ptr %4, align 8, !tbaa !8
  %18 = icmp ne ptr %17, null
  br i1 %18, label %19, label %21

19:                                               ; preds = %16
  %20 = load ptr, ptr %4, align 8, !tbaa !8
  call void @free(ptr noundef %20) #4
  store ptr null, ptr %4, align 8, !tbaa !8
  br label %22

21:                                               ; preds = %16
  br label %22

22:                                               ; preds = %21, %19
  %23 = load ptr, ptr %5, align 8, !tbaa !8
  %24 = icmp ne ptr %23, null
  br i1 %24, label %25, label %27

25:                                               ; preds = %22
  %26 = load ptr, ptr %5, align 8, !tbaa !8
  call void @free(ptr noundef %26) #4
  store ptr null, ptr %5, align 8, !tbaa !8
  br label %28

27:                                               ; preds = %22
  br label %28

28:                                               ; preds = %27, %25
  br label %29

29:                                               ; preds = %28, %10
  store i32 0, ptr %6, align 4
  br label %30

30:                                               ; preds = %29, %9
  call void @llvm.lifetime.end.p0(i64 8, ptr %5) #4
  %31 = load i32, ptr %6, align 4
  switch i32 %31, label %33 [
    i32 0, label %32
    i32 1, label %32
  ]

32:                                               ; preds = %30, %30
  ret void

33:                                               ; preds = %30
  unreachable
}


!llvm.module.flags = !{!0, !1, !2}

!0 = !{i32 1, !"wchar_size", i32 4}
!1 = !{i32 8, !"PIC Level", i32 2}
!2 = !{i32 7, !"uwtable", i32 2}
!3 = !{!4, !4, i64 0}
!4 = !{!"p1 _ZTS12Abc_Frame_t_", !5, i64 0}
!5 = !{!"any pointer", !6, i64 0}
!6 = !{!"omnipotent char", !7, i64 0}
!7 = !{!"Simple C/C++ TBAA"}
!8 = !{!9, !9, i64 0}
!9 = !{!"p1 omnipotent char", !5, i64 0}
!10 = !{!11, !12, i64 32}
!11 = !{!"Abc_Frame_t_", !9, i64 0, !9, i64 8, !12, i64 16, !12, i64 24, !12, i64 32, !13, i64 40, !14, i64 48, !14, i64 56, !14, i64 64, !14, i64 72, !15, i64 80, !15, i64 84, !15, i64 88, !15, i64 92, !15, i64 96, !14, i64 104, !16, i64 112, !16, i64 116, !15, i64 120, !15, i64 124, !17, i64 128, !17, i64 136, !17, i64 144, !18, i64 152, !18, i64 160, !13, i64 168, !5, i64 176, !5, i64 184, !5, i64 192, !5, i64 200, !5, i64 208, !5, i64 216, !5, i64 224, !5, i64 232, !5, i64 240, !5, i64 248, !9, i64 256, !16, i64 264, !19, i64 272, !15, i64 280, !20, i64 288, !20, i64 296, !20, i64 304, !20, i64 312, !20, i64 320, !15, i64 328, !15, i64 332, !15, i64 336, !15, i64 340, !15, i64 344, !15, i64 348, !21, i64 352, !21, i64 360, !13, i64 368, !13, i64 376, !19, i64 384, !19, i64 392, !15, i64 400, !15, i64 404, !13, i64 408, !13, i64 416, !13, i64 424, !9, i64 432, !5, i64 440, !5, i64 448, !5, i64 456, !5, i64 464, !5, i64 472, !5, i64 480, !5, i64 488, !5, i64 496, !5, i64 504, !19, i64 512, !5, i64 520, !5, i64 528, !5, i64 536, !5, i64 544, !22, i64 552, !23, i64 560, !24, i64 568, !20, i64 576, !20, i64 584, !19, i64 592, !19, i64 600, !25, i64 608, !25, i64 616, !5, i64 624, !25, i64 632, !5, i64 640}
!12 = !{!"p1 _ZTS9st__table", !5, i64 0}
!13 = !{!"p1 _ZTS10Vec_Ptr_t_", !5, i64 0}
!14 = !{!"p1 _ZTS10Abc_Ntk_t_", !5, i64 0}
!15 = !{!"int", !6, i64 0}
!16 = !{!"float", !6, i64 0}
!17 = !{!"p1 _ZTS8_IO_FILE", !5, i64 0}
!18 = !{!"double", !6, i64 0}
!19 = !{!"p1 _ZTS10Vec_Int_t_", !5, i64 0}
!20 = !{!"p1 _ZTS10Gia_Man_t_", !5, i64 0}
!21 = !{!"p1 _ZTS10Abc_Cex_t_", !5, i64 0}
!22 = !{!"p1 _ZTS10Abc_Nam_t_", !5, i64 0}
!23 = !{!"p1 _ZTS10Vec_Wec_t_", !5, i64 0}
!24 = !{!"p1 _ZTS9DdManager", !5, i64 0}
!25 = !{!"p1 int", !5, i64 0}
