; ModuleID = 'bench/abc/original/cmdFlag.ll'
source_filename = "bench/abc/original/cmdFlag.ll"
target datalayout = "e-m:e-p270:32:32-p271:32:32-p272:64:64-i64:64-i128:128-f80:128-n8:16:32:64-S128"
target triple = "x86_64-pc-linux-gnu"

@.str = private unnamed_addr constant [1 x i8] zeroinitializer, align 1

; Function Attrs: nounwind uwtable
define ptr @Cmd_FlagReadByName(ptr noundef readonly captures(none) %0, ptr noundef %1) local_unnamed_addr #0 {
  %3 = alloca ptr, align 8
  call void @llvm.lifetime.start.p0(i64 8, ptr nonnull %3) #4
  %4 = getelementptr inbounds nuw i8, ptr %0, i64 32
  %5 = load ptr, ptr %4, align 8, !tbaa !3
  %6 = call i32 @st__lookup(ptr noundef %5, ptr noundef %1, ptr noundef nonnull %3) #4
  %.not = icmp eq i32 %6, 0
  %7 = load ptr, ptr %3, align 8
  %.0 = select i1 %.not, ptr null, ptr %7
  call void @llvm.lifetime.end.p0(i64 8, ptr nonnull %3) #4
  ret ptr %.0
}

; Function Attrs: mustprogress nocallback nofree nosync nounwind willreturn memory(argmem: readwrite)
declare void @llvm.lifetime.start.p0(i64 immarg, ptr captures(none)) #1

declare i32 @st__lookup(ptr noundef, ptr noundef, ptr noundef) local_unnamed_addr #2

; Function Attrs: mustprogress nocallback nofree nosync nounwind willreturn memory(argmem: readwrite)
declare void @llvm.lifetime.end.p0(i64 immarg, ptr captures(none)) #1

; Function Attrs: nounwind uwtable
define void @Cmd_FlagUpdateValue(ptr noundef readonly captures(none) %0, ptr noundef %1, ptr noundef %2) local_unnamed_addr #0 {
  %4 = alloca ptr, align 8
  %5 = alloca ptr, align 8
  store ptr %1, ptr %4, align 8, !tbaa !23
  call void @llvm.lifetime.start.p0(i64 8, ptr nonnull %5) #4
  %.not = icmp eq ptr %1, null
  br i1 %.not, label %19, label %6

6:                                                ; preds = %3
  %.not8 = icmp eq ptr %2, null
  %.str. = select i1 %.not8, ptr @.str, ptr %2
  %7 = tail call ptr @Extra_UtilStrsav(ptr noundef nonnull %.str.) #4
  %8 = getelementptr inbounds nuw i8, ptr %0, i64 32
  %9 = load ptr, ptr %8, align 8, !tbaa !3
  %10 = call i32 @st__delete(ptr noundef %9, ptr noundef nonnull %4, ptr noundef nonnull %5) #4
  %11 = icmp ne i32 %10, 0
  %12 = load ptr, ptr %5, align 8
  %13 = icmp ne ptr %12, null
  %or.cond = select i1 %11, i1 %13, i1 false
  br i1 %or.cond, label %14, label %15

14:                                               ; preds = %6
  call void @free(ptr noundef nonnull %12) #4
  store ptr null, ptr %5, align 8, !tbaa !23
  br label %15

15:                                               ; preds = %14, %6
  %16 = load ptr, ptr %8, align 8, !tbaa !3
  %17 = load ptr, ptr %4, align 8, !tbaa !23
  %18 = call i32 @st__insert(ptr noundef %16, ptr noundef %17, ptr noundef %7) #4
  br label %19

19:                                               ; preds = %3, %15
  call void @llvm.lifetime.end.p0(i64 8, ptr nonnull %5) #4
  ret void
}

declare ptr @Extra_UtilStrsav(ptr noundef) local_unnamed_addr #2

declare i32 @st__delete(ptr noundef, ptr noundef, ptr noundef) local_unnamed_addr #2

; Function Attrs: mustprogress nounwind willreturn allockind("free") memory(argmem: readwrite, inaccessiblemem: readwrite)
declare void @free(ptr allocptr noundef captures(none)) local_unnamed_addr #3

declare i32 @st__insert(ptr noundef, ptr noundef, ptr noundef) local_unnamed_addr #2

; Function Attrs: nounwind uwtable
define void @Cmd_FlagDeleteByName(ptr noundef readonly captures(none) %0, ptr noundef %1) local_unnamed_addr #0 {
  %3 = alloca ptr, align 8
  %4 = alloca ptr, align 8
  store ptr %1, ptr %3, align 8, !tbaa !23
  call void @llvm.lifetime.start.p0(i64 8, ptr nonnull %4) #4
  %.not = icmp eq ptr %1, null
  br i1 %.not, label %15, label %5

5:                                                ; preds = %2
  %6 = getelementptr inbounds nuw i8, ptr %0, i64 32
  %7 = load ptr, ptr %6, align 8, !tbaa !3
  %8 = call i32 @st__delete(ptr noundef %7, ptr noundef nonnull %3, ptr noundef nonnull %4) #4
  %.not2 = icmp eq i32 %8, 0
  br i1 %.not2, label %15, label %9

9:                                                ; preds = %5
  %10 = load ptr, ptr %3, align 8, !tbaa !23
  %.not3 = icmp eq ptr %10, null
  br i1 %.not3, label %12, label %11

11:                                               ; preds = %9
  call void @free(ptr noundef nonnull %10) #4
  store ptr null, ptr %3, align 8, !tbaa !23
  br label %12

12:                                               ; preds = %9, %11
  %13 = load ptr, ptr %4, align 8, !tbaa !23
  %.not4 = icmp eq ptr %13, null
  br i1 %.not4, label %15, label %14

14:                                               ; preds = %12
  call void @free(ptr noundef nonnull %13) #4
  br label %15

15:                                               ; preds = %5, %12, %14, %2
  call void @llvm.lifetime.end.p0(i64 8, ptr nonnull %4) #4
  ret void
}


!llvm.module.flags = !{!0, !1, !2}

!0 = !{i32 1, !"wchar_size", i32 4}
!1 = !{i32 8, !"PIC Level", i32 2}
!2 = !{i32 7, !"uwtable", i32 2}
!3 = !{!4, !9, i64 32}
!4 = !{!"Abc_Frame_t_", !5, i64 0, !5, i64 8, !9, i64 16, !9, i64 24, !9, i64 32, !10, i64 40, !11, i64 48, !11, i64 56, !11, i64 64, !11, i64 72, !12, i64 80, !12, i64 84, !12, i64 88, !12, i64 92, !12, i64 96, !11, i64 104, !13, i64 112, !13, i64 116, !12, i64 120, !12, i64 124, !14, i64 128, !14, i64 136, !14, i64 144, !15, i64 152, !15, i64 160, !10, i64 168, !6, i64 176, !6, i64 184, !6, i64 192, !6, i64 200, !6, i64 208, !6, i64 216, !6, i64 224, !6, i64 232, !6, i64 240, !6, i64 248, !5, i64 256, !13, i64 264, !16, i64 272, !12, i64 280, !17, i64 288, !17, i64 296, !17, i64 304, !17, i64 312, !17, i64 320, !12, i64 328, !12, i64 332, !12, i64 336, !12, i64 340, !12, i64 344, !12, i64 348, !18, i64 352, !18, i64 360, !10, i64 368, !10, i64 376, !16, i64 384, !16, i64 392, !12, i64 400, !12, i64 404, !10, i64 408, !10, i64 416, !10, i64 424, !5, i64 432, !6, i64 440, !6, i64 448, !6, i64 456, !6, i64 464, !6, i64 472, !6, i64 480, !6, i64 488, !6, i64 496, !6, i64 504, !16, i64 512, !6, i64 520, !6, i64 528, !6, i64 536, !6, i64 544, !19, i64 552, !20, i64 560, !21, i64 568, !17, i64 576, !17, i64 584, !16, i64 592, !16, i64 600, !22, i64 608, !22, i64 616, !6, i64 624, !22, i64 632, !6, i64 640}
!5 = !{!"p1 omnipotent char", !6, i64 0}
!6 = !{!"any pointer", !7, i64 0}
!7 = !{!"omnipotent char", !8, i64 0}
!8 = !{!"Simple C/C++ TBAA"}
!9 = !{!"p1 _ZTS9st__table", !6, i64 0}
!10 = !{!"p1 _ZTS10Vec_Ptr_t_", !6, i64 0}
!11 = !{!"p1 _ZTS10Abc_Ntk_t_", !6, i64 0}
!12 = !{!"int", !7, i64 0}
!13 = !{!"float", !7, i64 0}
!14 = !{!"p1 _ZTS8_IO_FILE", !6, i64 0}
!15 = !{!"double", !7, i64 0}
!16 = !{!"p1 _ZTS10Vec_Int_t_", !6, i64 0}
!17 = !{!"p1 _ZTS10Gia_Man_t_", !6, i64 0}
!18 = !{!"p1 _ZTS10Abc_Cex_t_", !6, i64 0}
!19 = !{!"p1 _ZTS10Abc_Nam_t_", !6, i64 0}
!20 = !{!"p1 _ZTS10Vec_Wec_t_", !6, i64 0}
!21 = !{!"p1 _ZTS9DdManager", !6, i64 0}
!22 = !{!"p1 int", !6, i64 0}
!23 = !{!5, !5, i64 0}
